target datalayout = "e-m:e-p270:32:32-p271:32:32-p272:64:64-i64:64-i128:128-f80:128-n8:16:32:64-S128"
target triple = "x86_64-unknown-linux-gnu"

%"class.google::LogMessage" = type { ptr, ptr }
%"class.facebook::velox::WriteFile" = type { ptr }
%"class.facebook::velox::LocalWriteFile" = type <{ %"class.facebook::velox::WriteFile", ptr, i64, i8, [7 x i8] }>

@.str = private unnamed_addr constant [116 x i8] c"generated/home/dtcxzyw/WorkSpace/Projects/compilers/llvm-opt-benchmark/bench/velox/velox/velox/common/file/File.cpp\00", align 1
@_ZTISt9exception = external constant ptr
@.str.5 = private unnamed_addr constant [46 x i8] c"fclose failure in LocalWriteFile destructor: \00", align 1

; Function Attrs: noreturn nounwind uwtable
define linkonce_odr hidden void @__clang_call_terminate(ptr noundef %0) #6 comdat {
  %2 = call ptr @__cxa_begin_catch(ptr %0) #9
  call void @_ZSt9terminatev() #18
  unreachable
}

; Function Attrs: mustprogress nounwind uwtable
define linkonce_odr void @_ZN8facebook5velox9WriteFileD2Ev(ptr noundef nonnull align 8 dereferenceable(8) %this) unnamed_addr #3 comdat align 2 {
entry:
  %this.addr = alloca ptr, align 8
  store ptr %this, ptr %this.addr, align 8
  ret void
}

; Function Attrs: mustprogress uwtable
define void @_ZN8facebook5velox14LocalWriteFile5closeEv(ptr noundef nonnull align 8 dereferenceable(32) %this) unnamed_addr #0 align 2 {
entry:
  %this.addr = alloca ptr, align 8
  %ret = alloca i32, align 4
  store ptr %this, ptr %this.addr, align 8
  %this1 = load ptr, ptr %this.addr, align 8
  %closed_ = getelementptr inbounds %"class.facebook::velox::LocalWriteFile", ptr %this1, i32 0, i32 3
  %0 = load i8, ptr %closed_, align 8
  %tobool = trunc i8 %0 to i1
  br i1 %tobool, label %if.end4, label %if.then

if.then:                                          ; preds = %entry
  %file_ = getelementptr inbounds %"class.facebook::velox::LocalWriteFile", ptr %this1, i32 0, i32 1
  %1 = load ptr, ptr %file_, align 8
  %call = call i32 @fclose(ptr noundef %1)
  store i32 %call, ptr %ret, align 4
  %2 = load i32, ptr %ret, align 4
  %cmp = icmp eq i32 %2, 0
  %lnot = xor i1 %cmp, true
  br i1 %lnot, label %if.then2, label %if.end

if.then2:                                         ; preds = %if.then
  call void @llvm.trap()
  br label %if.end

if.end:                                           ; preds = %if.then2, %if.then
  %closed_3 = getelementptr inbounds %"class.facebook::velox::LocalWriteFile", ptr %this1, i32 0, i32 3
  store i8 1, ptr %closed_3, align 8
  br label %if.end4

if.end4:                                          ; preds = %if.end, %entry
  ret void
}

; Function Attrs: mustprogress nounwind uwtable
define void @_ZN8facebook5velox14LocalWriteFileD2Ev(ptr noundef nonnull align 8 dereferenceable(32) %this) unnamed_addr #3 align 2 personality ptr @__gxx_personality_v0 {
entry:
  %this.addr = alloca ptr, align 8
  %exn.slot = alloca ptr, align 8
  %ehselector.slot = alloca i32, align 4
  %ex = alloca ptr, align 8
  %ref.tmp = alloca %"class.google::LogMessage", align 8
  store ptr %this, ptr %this.addr, align 8
  %this1 = load ptr, ptr %this.addr, align 8
  invoke void @_ZN8facebook5velox14LocalWriteFile5closeEv(ptr noundef nonnull align 8 dereferenceable(32) %this1)
          to label %invoke.cont unwind label %lpad

invoke.cont:                                      ; preds = %entry
  br label %try.cont

lpad:                                             ; preds = %entry
  %0 = landingpad { ptr, i32 }
          catch ptr @_ZTISt9exception
          catch ptr null
  %1 = extractvalue { ptr, i32 } %0, 0
  store ptr %1, ptr %exn.slot, align 8
  %2 = extractvalue { ptr, i32 } %0, 1
  store i32 %2, ptr %ehselector.slot, align 4
  br label %catch.dispatch

catch.dispatch:                                   ; preds = %lpad
  %sel = load i32, ptr %ehselector.slot, align 4
  %3 = call i32 @llvm.eh.typeid.for(ptr @_ZTISt9exception) #9
  %matches = icmp eq i32 %sel, %3
  br i1 %matches, label %catch, label %terminate.handler

catch:                                            ; preds = %catch.dispatch
  %exn = load ptr, ptr %exn.slot, align 8
  %4 = call ptr @__cxa_begin_catch(ptr %exn) #9
  store ptr %4, ptr %ex, align 8
  invoke void @_ZN6google10LogMessageC1EPKcii(ptr noundef nonnull align 8 dereferenceable(16) %ref.tmp, ptr noundef @.str, i32 noundef 257, i32 noundef 1)
          to label %invoke.cont2 unwind label %terminate.lpad

invoke.cont2:                                     ; preds = %catch
  %call = invoke noundef nonnull align 8 dereferenceable(8) ptr @_ZN6google10LogMessage6streamEv(ptr noundef nonnull align 8 dereferenceable(16) %ref.tmp)
          to label %invoke.cont3 unwind label %terminate.lpad

invoke.cont3:                                     ; preds = %invoke.cont2
  %call5 = invoke noundef nonnull align 8 dereferenceable(8) ptr @_ZStlsISt11char_traitsIcEERSt13basic_ostreamIcT_ES5_PKc(ptr noundef nonnull align 8 dereferenceable(8) %call, ptr noundef @.str.5)
          to label %invoke.cont4 unwind label %terminate.lpad

invoke.cont4:                                     ; preds = %invoke.cont3
  %5 = load ptr, ptr %ex, align 8
  %vtable = load ptr, ptr %5, align 8
  %vfn = getelementptr inbounds ptr, ptr %vtable, i64 2
  %6 = load ptr, ptr %vfn, align 8
  %call6 = call noundef ptr %6(ptr noundef nonnull align 8 dereferenceable(8) %5) #9
  %call8 = invoke noundef nonnull align 8 dereferenceable(8) ptr @_ZStlsISt11char_traitsIcEERSt13basic_ostreamIcT_ES5_PKc(ptr noundef nonnull align 8 dereferenceable(8) %call5, ptr noundef %call6)
          to label %invoke.cont7 unwind label %terminate.lpad

invoke.cont7:                                     ; preds = %invoke.cont4
  call void @_ZN6google10LogMessageD1Ev(ptr noundef nonnull align 8 dereferenceable(16) %ref.tmp) #9
  invoke void @__cxa_end_catch()
          to label %invoke.cont9 unwind label %terminate.lpad

invoke.cont9:                                     ; preds = %invoke.cont7
  br label %try.cont

try.cont:                                         ; preds = %invoke.cont9, %invoke.cont
  call void @_ZN8facebook5velox9WriteFileD2Ev(ptr noundef nonnull align 8 dereferenceable(8) %this1) #9
  ret void

terminate.lpad:                                   ; preds = %invoke.cont7, %invoke.cont4, %invoke.cont3, %invoke.cont2, %catch
  %7 = landingpad { ptr, i32 }
          catch ptr null
  %8 = extractvalue { ptr, i32 } %7, 0
  call void @__clang_call_terminate(ptr %8) #18
  unreachable

terminate.handler:                                ; preds = %catch.dispatch
  %exn10 = load ptr, ptr %exn.slot, align 8
  call void @__clang_call_terminate(ptr %exn10) #18
  unreachable
}