; Function Attrs: mustprogress nounwind uwtable
define void @_ZN8facebook5velox14LocalWriteFileD2Ev(ptr nocapture noundef nonnull align 8 dereferenceable(32) %this) unnamed_addr #6 align 2 personality ptr @__gxx_personality_v0 {
entry:
  %closed_.i = getelementptr inbounds i8, ptr %this, i64 24
  %0 = load i8, ptr %closed_.i, align 8
  %1 = and i8 %0, 1
  %tobool.not.i = icmp eq i8 %1, 0
  br i1 %tobool.not.i, label %if.then.i, label %try.cont

if.then.i:                                        ; preds = %entry
  %file_.i = getelementptr inbounds i8, ptr %this, i64 8
  %2 = load ptr, ptr %file_.i, align 8
  %call.i = tail call i32 @fclose(ptr noundef %2)
  %cmp.not.i = icmp eq i32 %call.i, 0
  br i1 %cmp.not.i, label %if.end.i, label %if.then2.i

if.then2.i:                                       ; preds = %if.then.i
  tail call void @llvm.trap()
  unreachable

if.end.i:                                         ; preds = %if.then.i
  store i8 1, ptr %closed_.i, align 8
  br label %try.cont

try.cont:                                         ; preds = %if.end.i, %entry
  ret void
}